; Function Attrs: mustprogress uwtable
define hidden void @_ZN11realclosure7manager16mk_infinitesimalEPKcS2_RNS_3numE(ptr noundef nonnull readonly align 8 captures(none) dereferenceable(8) %0, ptr noundef %1, ptr noundef %2, ptr noundef nonnull align 8 dereferenceable(8) %3) local_unnamed_addr #5 align 2 {
  %5 = alloca %class.symbol, align 8
  %6 = alloca %class.symbol, align 8
  %7 = load ptr, ptr %0, align 8, !tbaa !11
  call void @llvm.lifetime.start.p0(i64 8, ptr nonnull %5) #24
  call void @_ZN6symbolC1EPKc(ptr noundef nonnull align 8 dereferenceable(8) %5, ptr noundef %1)
  call void @llvm.lifetime.start.p0(i64 8, ptr nonnull %6) #24
  call void @_ZN6symbolC1EPKc(ptr noundef nonnull align 8 dereferenceable(8) %6, ptr noundef %2)
  call void @_ZN11realclosure7manager3imp16mk_infinitesimalERK6symbolS4_RNS_3numE(ptr noundef nonnull align 8 dereferenceable(1497) %7, ptr noundef nonnull align 8 dereferenceable(8) %5, ptr noundef nonnull align 8 dereferenceable(8) %6, ptr noundef nonnull align 8 dereferenceable(8) %3)
  call void @llvm.lifetime.end.p0(i64 8, ptr nonnull %6) #24
  call void @llvm.lifetime.end.p0(i64 8, ptr nonnull %5) #24
  ret void
}